target datalayout = "e-m:e-p270:32:32-p271:32:32-p272:64:64-i64:64-i128:128-f80:128-n8:16:32:64-S128"
target triple = "x86_64-unknown-linux-gnu"

%"class.std::__cxx11::basic_string" = type { %"struct.std::__cxx11::basic_string<char>::_Alloc_hider", i64, %union.anon }
%"struct.std::__cxx11::basic_string<char>::_Alloc_hider" = type { ptr }
%union.anon = type { i64, [8 x i8] }
%struct.aiString = type { i32, [1024 x i8] }
%"class.Assimp::AssbinImporter" = type <{ %"class.Assimp::BaseImporter", i8, i8, [6 x i8] }>
%"class.Assimp::BaseImporter" = type { ptr, double, double, %"class.std::__cxx11::basic_string", %"class.std::__exception_ptr::exception_ptr", ptr }
%"class.std::__exception_ptr::exception_ptr" = type { ptr }
%struct.aiTexture = type <{ i32, i32, [9 x i8], [7 x i8], ptr, %struct.aiString, [4 x i8] }>

@.str.2 = private unnamed_addr constant [35 x i8] c"Magic chunk identifiers are wrong!\00", align 1
@_ZTI17DeadlyImportError = linkonce_odr constant { ptr, ptr, ptr } { ptr getelementptr inbounds (ptr, ptr @_ZTVN10__cxxabiv120__si_class_type_infoE, i64 2), ptr @_ZTS17DeadlyImportError, ptr @_ZTI15DeadlyErrorBase }, comdat, align 8
@.str.13 = private unnamed_addr constant [15 x i8] c"Unexpected EOF\00", align 1

; Function Attrs: mustprogress uwtable
define linkonce_odr hidden noundef i32 @_Z4ReadIjET_PN6Assimp8IOStreamE(ptr noundef %stream) #2 comdat personality ptr @__gxx_personality_v0 {
entry:
  %stream.addr = alloca ptr, align 8
  %t = alloca i32, align 4
  %res = alloca i64, align 8
  %exn.slot = alloca ptr, align 8
  %ehselector.slot = alloca i32, align 4
  store ptr %stream, ptr %stream.addr, align 8
  %0 = load ptr, ptr %stream.addr, align 8
  %vtable = load ptr, ptr %0, align 8
  %vfn = getelementptr inbounds ptr, ptr %vtable, i64 2
  %1 = load ptr, ptr %vfn, align 8
  %call = call noundef i64 %1(ptr noundef nonnull align 8 dereferenceable(8) %0, ptr noundef %t, i64 noundef 4, i64 noundef 1)
  store i64 %call, ptr %res, align 8
  %2 = load i64, ptr %res, align 8
  %cmp = icmp ne i64 %2, 1
  br i1 %cmp, label %if.then, label %if.end

if.then:                                          ; preds = %entry
  %exception = call ptr @__cxa_allocate_exception(i64 16) #15
  invoke void @_ZN17DeadlyImportErrorC2EPKc(ptr noundef nonnull align 8 dereferenceable(16) %exception, ptr noundef @.str.13)
          to label %invoke.cont unwind label %lpad

invoke.cont:                                      ; preds = %if.then
  call void @__cxa_throw(ptr %exception, ptr @_ZTI17DeadlyImportError, ptr @_ZN17DeadlyImportErrorD2Ev) #17
  unreachable

lpad:                                             ; preds = %if.then
  %3 = landingpad { ptr, i32 }
          cleanup
  %4 = extractvalue { ptr, i32 } %3, 0
  store ptr %4, ptr %exn.slot, align 8
  %5 = extractvalue { ptr, i32 } %3, 1
  store i32 %5, ptr %ehselector.slot, align 4
  call void @__cxa_free_exception(ptr %exception) #15
  br label %eh.resume

if.end:                                           ; preds = %entry
  %6 = load i32, ptr %t, align 4
  ret i32 %6

eh.resume:                                        ; preds = %lpad
  %exn = load ptr, ptr %exn.slot, align 8
  %sel = load i32, ptr %ehselector.slot, align 4
  %lpad.val = insertvalue { ptr, i32 } poison, ptr %exn, 0
  %lpad.val1 = insertvalue { ptr, i32 } %lpad.val, i32 %sel, 1
  resume { ptr, i32 } %lpad.val1
}

; Function Attrs: mustprogress uwtable
define hidden void @_ZN6Assimp14AssbinImporter17ReadBinaryTextureEPNS_8IOStreamEP9aiTexture(ptr noundef nonnull align 8 dereferenceable(74) %this, ptr noundef %stream, ptr noundef %tex) #2 align 2 personality ptr @__gxx_personality_v0 {
entry:
  %this.addr = alloca ptr, align 8
  %stream.addr = alloca ptr, align 8
  %tex.addr = alloca ptr, align 8
  %exn.slot = alloca ptr, align 8
  %ehselector.slot = alloca i32, align 4
  store ptr %this, ptr %this.addr, align 8
  store ptr %stream, ptr %stream.addr, align 8
  store ptr %tex, ptr %tex.addr, align 8
  %this1 = load ptr, ptr %this.addr, align 8
  %0 = load ptr, ptr %stream.addr, align 8
  %call = call noundef i32 @_Z4ReadIjET_PN6Assimp8IOStreamE(ptr noundef %0)
  %cmp = icmp ne i32 %call, 4662
  br i1 %cmp, label %if.then, label %if.end

if.then:                                          ; preds = %entry
  %exception = call ptr @__cxa_allocate_exception(i64 16) #15
  invoke void @_ZN17DeadlyImportErrorC2EPKc(ptr noundef nonnull align 8 dereferenceable(16) %exception, ptr noundef @.str.2)
          to label %invoke.cont unwind label %lpad

invoke.cont:                                      ; preds = %if.then
  call void @__cxa_throw(ptr %exception, ptr @_ZTI17DeadlyImportError, ptr @_ZN17DeadlyImportErrorD2Ev) #17
  unreachable

lpad:                                             ; preds = %if.then
  %1 = landingpad { ptr, i32 }
          cleanup
  %2 = extractvalue { ptr, i32 } %1, 0
  store ptr %2, ptr %exn.slot, align 8
  %3 = extractvalue { ptr, i32 } %1, 1
  store i32 %3, ptr %ehselector.slot, align 4
  call void @__cxa_free_exception(ptr %exception) #15
  br label %eh.resume

if.end:                                           ; preds = %entry
  %4 = load ptr, ptr %stream.addr, align 8
  %call2 = call noundef i32 @_Z4ReadIjET_PN6Assimp8IOStreamE(ptr noundef %4)
  %5 = load ptr, ptr %stream.addr, align 8
  %call3 = call noundef i32 @_Z4ReadIjET_PN6Assimp8IOStreamE(ptr noundef %5)
  %6 = load ptr, ptr %tex.addr, align 8
  %mWidth = getelementptr inbounds %struct.aiTexture, ptr %6, i32 0, i32 0
  store i32 %call3, ptr %mWidth, align 8
  %7 = load ptr, ptr %stream.addr, align 8
  %call4 = call noundef i32 @_Z4ReadIjET_PN6Assimp8IOStreamE(ptr noundef %7)
  %8 = load ptr, ptr %tex.addr, align 8
  %mHeight = getelementptr inbounds %struct.aiTexture, ptr %8, i32 0, i32 1
  store i32 %call4, ptr %mHeight, align 4
  %9 = load ptr, ptr %stream.addr, align 8
  %10 = load ptr, ptr %tex.addr, align 8
  %achFormatHint = getelementptr inbounds %struct.aiTexture, ptr %10, i32 0, i32 2
  %arraydecay = getelementptr inbounds [9 x i8], ptr %achFormatHint, i64 0, i64 0
  %vtable = load ptr, ptr %9, align 8
  %vfn = getelementptr inbounds ptr, ptr %vtable, i64 2
  %11 = load ptr, ptr %vfn, align 8
  %call5 = call noundef i64 %11(ptr noundef nonnull align 8 dereferenceable(8) %9, ptr noundef %arraydecay, i64 noundef 1, i64 noundef 8)
  %shortened = getelementptr inbounds %"class.Assimp::AssbinImporter", ptr %this1, i32 0, i32 1
  %12 = load i8, ptr %shortened, align 8
  %tobool = trunc i8 %12 to i1
  br i1 %tobool, label %if.end33, label %if.then6

if.then6:                                         ; preds = %if.end
  %13 = load ptr, ptr %tex.addr, align 8
  %mHeight7 = getelementptr inbounds %struct.aiTexture, ptr %13, i32 0, i32 1
  %14 = load i32, ptr %mHeight7, align 4
  %tobool8 = icmp ne i32 %14, 0
  br i1 %tobool8, label %if.else, label %if.then9

if.then9:                                         ; preds = %if.then6
  %15 = load ptr, ptr %tex.addr, align 8
  %mWidth10 = getelementptr inbounds %struct.aiTexture, ptr %15, i32 0, i32 0
  %16 = load i32, ptr %mWidth10, align 8
  %conv = zext i32 %16 to i64
  %17 = call { i64, i1 } @llvm.umul.with.overflow.i64(i64 %conv, i64 4)
  %18 = extractvalue { i64, i1 } %17, 1
  %19 = extractvalue { i64, i1 } %17, 0
  %20 = select i1 %18, i64 -1, i64 %19
  %call11 = call noalias noundef nonnull ptr @_Znam(i64 noundef %20) #18
  %21 = load ptr, ptr %tex.addr, align 8
  %pcData = getelementptr inbounds %struct.aiTexture, ptr %21, i32 0, i32 4
  store ptr %call11, ptr %pcData, align 8
  %22 = load ptr, ptr %stream.addr, align 8
  %23 = load ptr, ptr %tex.addr, align 8
  %pcData12 = getelementptr inbounds %struct.aiTexture, ptr %23, i32 0, i32 4
  %24 = load ptr, ptr %pcData12, align 8
  %25 = load ptr, ptr %tex.addr, align 8
  %mWidth13 = getelementptr inbounds %struct.aiTexture, ptr %25, i32 0, i32 0
  %26 = load i32, ptr %mWidth13, align 8
  %conv14 = zext i32 %26 to i64
  %vtable15 = load ptr, ptr %22, align 8
  %vfn16 = getelementptr inbounds ptr, ptr %vtable15, i64 2
  %27 = load ptr, ptr %vfn16, align 8
  %call17 = call noundef i64 %27(ptr noundef nonnull align 8 dereferenceable(8) %22, ptr noundef %24, i64 noundef 1, i64 noundef %conv14)
  br label %if.end32

if.else:                                          ; preds = %if.then6
  %28 = load ptr, ptr %tex.addr, align 8
  %mWidth18 = getelementptr inbounds %struct.aiTexture, ptr %28, i32 0, i32 0
  %29 = load i32, ptr %mWidth18, align 8
  %30 = load ptr, ptr %tex.addr, align 8
  %mHeight19 = getelementptr inbounds %struct.aiTexture, ptr %30, i32 0, i32 1
  %31 = load i32, ptr %mHeight19, align 4
  %mul = mul i32 %29, %31
  %conv20 = zext i32 %mul to i64
  %32 = call { i64, i1 } @llvm.umul.with.overflow.i64(i64 %conv20, i64 4)
  %33 = extractvalue { i64, i1 } %32, 1
  %34 = extractvalue { i64, i1 } %32, 0
  %35 = select i1 %33, i64 -1, i64 %34
  %call21 = call noalias noundef nonnull ptr @_Znam(i64 noundef %35) #18
  %36 = load ptr, ptr %tex.addr, align 8
  %pcData22 = getelementptr inbounds %struct.aiTexture, ptr %36, i32 0, i32 4
  store ptr %call21, ptr %pcData22, align 8
  %37 = load ptr, ptr %stream.addr, align 8
  %38 = load ptr, ptr %tex.addr, align 8
  %pcData23 = getelementptr inbounds %struct.aiTexture, ptr %38, i32 0, i32 4
  %39 = load ptr, ptr %pcData23, align 8
  %40 = load ptr, ptr %tex.addr, align 8
  %mWidth24 = getelementptr inbounds %struct.aiTexture, ptr %40, i32 0, i32 0
  %41 = load i32, ptr %mWidth24, align 8
  %42 = load ptr, ptr %tex.addr, align 8
  %mHeight25 = getelementptr inbounds %struct.aiTexture, ptr %42, i32 0, i32 1
  %43 = load i32, ptr %mHeight25, align 4
  %mul26 = mul i32 %41, %43
  %mul27 = mul i32 %mul26, 4
  %conv28 = zext i32 %mul27 to i64
  %vtable29 = load ptr, ptr %37, align 8
  %vfn30 = getelementptr inbounds ptr, ptr %vtable29, i64 2
  %44 = load ptr, ptr %vfn30, align 8
  %call31 = call noundef i64 %44(ptr noundef nonnull align 8 dereferenceable(8) %37, ptr noundef %39, i64 noundef 1, i64 noundef %conv28)
  br label %if.end32

if.end32:                                         ; preds = %if.else, %if.then9
  br label %if.end33

if.end33:                                         ; preds = %if.end32, %if.end
  ret void

eh.resume:                                        ; preds = %lpad
  %exn = load ptr, ptr %exn.slot, align 8
  %sel = load i32, ptr %ehselector.slot, align 4
  %lpad.val = insertvalue { ptr, i32 } poison, ptr %exn, 0
  %lpad.val34 = insertvalue { ptr, i32 } %lpad.val, i32 %sel, 1
  resume { ptr, i32 } %lpad.val34
}