; Function Attrs: mustprogress uwtable
define hidden void @_ZN6Assimp14AssbinImporter17ReadBinaryTextureEPNS_8IOStreamEP9aiTexture(ptr nocapture noundef nonnull readonly align 8 dereferenceable(74) %this, ptr noundef %stream, ptr noundef %tex) local_unnamed_addr #1 align 2 personality ptr @__gxx_personality_v0 {
entry:
  %t.i40 = alloca i32, align 4
  %t.i30 = alloca i32, align 4
  %t.i20 = alloca i32, align 4
  %t.i = alloca i32, align 4
  call void @llvm.lifetime.start.p0(i64 4, ptr nonnull %t.i)
  %vtable.i = load ptr, ptr %stream, align 8
  %vfn.i = getelementptr inbounds i8, ptr %vtable.i, i64 16
  %0 = load ptr, ptr %vfn.i, align 8
  %call.i = call noundef i64 %0(ptr noundef nonnull align 8 dereferenceable(8) %stream, ptr noundef nonnull %t.i, i64 noundef 4, i64 noundef 1)
  %cmp.not.i = icmp eq i64 %call.i, 1
  br i1 %cmp.not.i, label %_Z4ReadIjET_PN6Assimp8IOStreamE.exit, label %if.then.i

if.then.i:                                        ; preds = %entry
  %exception.i = call ptr @__cxa_allocate_exception(i64 16) #15
  invoke void @_ZN17DeadlyImportErrorC2EPKc(ptr noundef nonnull align 8 dereferenceable(16) %exception.i, ptr noundef nonnull @.str.13)
          to label %invoke.cont.i unwind label %lpad.i

invoke.cont.i:                                    ; preds = %if.then.i
  call void @__cxa_throw(ptr nonnull %exception.i, ptr nonnull @_ZTI17DeadlyImportError, ptr nonnull @_ZN17DeadlyImportErrorD2Ev) #16
  unreachable

common.resume:                                    ; preds = %lpad.i47, %lpad.i37, %lpad.i27, %lpad, %lpad.i
  %exception.i46.sink = phi ptr [ %exception.i46, %lpad.i47 ], [ %exception.i36, %lpad.i37 ], [ %exception.i26, %lpad.i27 ], [ %exception, %lpad ], [ %exception.i, %lpad.i ]
  %common.resume.op = phi { ptr, i32 } [ %10, %lpad.i47 ], [ %7, %lpad.i37 ], [ %5, %lpad.i27 ], [ %3, %lpad ], [ %1, %lpad.i ]
  call void @__cxa_free_exception(ptr %exception.i46.sink) #15
  resume { ptr, i32 } %common.resume.op

lpad.i:                                           ; preds = %if.then.i
  %1 = landingpad { ptr, i32 }
          cleanup
  br label %common.resume

_Z4ReadIjET_PN6Assimp8IOStreamE.exit:             ; preds = %entry
  %2 = load i32, ptr %t.i, align 4
  call void @llvm.lifetime.end.p0(i64 4, ptr nonnull %t.i)
  %cmp.not = icmp eq i32 %2, 4662
  br i1 %cmp.not, label %if.end, label %if.then

if.then:                                          ; preds = %_Z4ReadIjET_PN6Assimp8IOStreamE.exit
  %exception = call ptr @__cxa_allocate_exception(i64 16) #15
  invoke void @_ZN17DeadlyImportErrorC2EPKc(ptr noundef nonnull align 8 dereferenceable(16) %exception, ptr noundef nonnull @.str.2)
          to label %invoke.cont unwind label %lpad

invoke.cont:                                      ; preds = %if.then
  call void @__cxa_throw(ptr nonnull %exception, ptr nonnull @_ZTI17DeadlyImportError, ptr nonnull @_ZN17DeadlyImportErrorD2Ev) #16
  unreachable

lpad:                                             ; preds = %if.then
  %3 = landingpad { ptr, i32 }
          cleanup
  br label %common.resume

if.end:                                           ; preds = %_Z4ReadIjET_PN6Assimp8IOStreamE.exit
  call void @llvm.lifetime.start.p0(i64 4, ptr nonnull %t.i20)
  %vtable.i21 = load ptr, ptr %stream, align 8
  %vfn.i22 = getelementptr inbounds i8, ptr %vtable.i21, i64 16
  %4 = load ptr, ptr %vfn.i22, align 8
  %call.i23 = call noundef i64 %4(ptr noundef nonnull align 8 dereferenceable(8) %stream, ptr noundef nonnull %t.i20, i64 noundef 4, i64 noundef 1)
  %cmp.not.i24 = icmp eq i64 %call.i23, 1
  br i1 %cmp.not.i24, label %_Z4ReadIjET_PN6Assimp8IOStreamE.exit29, label %if.then.i25

if.then.i25:                                      ; preds = %if.end
  %exception.i26 = call ptr @__cxa_allocate_exception(i64 16) #15
  invoke void @_ZN17DeadlyImportErrorC2EPKc(ptr noundef nonnull align 8 dereferenceable(16) %exception.i26, ptr noundef nonnull @.str.13)
          to label %invoke.cont.i28 unwind label %lpad.i27

invoke.cont.i28:                                  ; preds = %if.then.i25
  call void @__cxa_throw(ptr nonnull %exception.i26, ptr nonnull @_ZTI17DeadlyImportError, ptr nonnull @_ZN17DeadlyImportErrorD2Ev) #16
  unreachable

lpad.i27:                                         ; preds = %if.then.i25
  %5 = landingpad { ptr, i32 }
          cleanup
  br label %common.resume

_Z4ReadIjET_PN6Assimp8IOStreamE.exit29:           ; preds = %if.end
  call void @llvm.lifetime.end.p0(i64 4, ptr nonnull %t.i20)
  call void @llvm.lifetime.start.p0(i64 4, ptr nonnull %t.i30)
  %vtable.i31 = load ptr, ptr %stream, align 8
  %vfn.i32 = getelementptr inbounds i8, ptr %vtable.i31, i64 16
  %6 = load ptr, ptr %vfn.i32, align 8
  %call.i33 = call noundef i64 %6(ptr noundef nonnull align 8 dereferenceable(8) %stream, ptr noundef nonnull %t.i30, i64 noundef 4, i64 noundef 1)
  %cmp.not.i34 = icmp eq i64 %call.i33, 1
  br i1 %cmp.not.i34, label %_Z4ReadIjET_PN6Assimp8IOStreamE.exit39, label %if.then.i35

if.then.i35:                                      ; preds = %_Z4ReadIjET_PN6Assimp8IOStreamE.exit29
  %exception.i36 = call ptr @__cxa_allocate_exception(i64 16) #15
  invoke void @_ZN17DeadlyImportErrorC2EPKc(ptr noundef nonnull align 8 dereferenceable(16) %exception.i36, ptr noundef nonnull @.str.13)
          to label %invoke.cont.i38 unwind label %lpad.i37

invoke.cont.i38:                                  ; preds = %if.then.i35
  call void @__cxa_throw(ptr nonnull %exception.i36, ptr nonnull @_ZTI17DeadlyImportError, ptr nonnull @_ZN17DeadlyImportErrorD2Ev) #16
  unreachable

lpad.i37:                                         ; preds = %if.then.i35
  %7 = landingpad { ptr, i32 }
          cleanup
  br label %common.resume

_Z4ReadIjET_PN6Assimp8IOStreamE.exit39:           ; preds = %_Z4ReadIjET_PN6Assimp8IOStreamE.exit29
  %8 = load i32, ptr %t.i30, align 4
  call void @llvm.lifetime.end.p0(i64 4, ptr nonnull %t.i30)
  store i32 %8, ptr %tex, align 8
  call void @llvm.lifetime.start.p0(i64 4, ptr nonnull %t.i40)
  %vtable.i41 = load ptr, ptr %stream, align 8
  %vfn.i42 = getelementptr inbounds i8, ptr %vtable.i41, i64 16
  %9 = load ptr, ptr %vfn.i42, align 8
  %call.i43 = call noundef i64 %9(ptr noundef nonnull align 8 dereferenceable(8) %stream, ptr noundef nonnull %t.i40, i64 noundef 4, i64 noundef 1)
  %cmp.not.i44 = icmp eq i64 %call.i43, 1
  br i1 %cmp.not.i44, label %_Z4ReadIjET_PN6Assimp8IOStreamE.exit49, label %if.then.i45

if.then.i45:                                      ; preds = %_Z4ReadIjET_PN6Assimp8IOStreamE.exit39
  %exception.i46 = call ptr @__cxa_allocate_exception(i64 16) #15
  invoke void @_ZN17DeadlyImportErrorC2EPKc(ptr noundef nonnull align 8 dereferenceable(16) %exception.i46, ptr noundef nonnull @.str.13)
          to label %invoke.cont.i48 unwind label %lpad.i47

invoke.cont.i48:                                  ; preds = %if.then.i45
  call void @__cxa_throw(ptr nonnull %exception.i46, ptr nonnull @_ZTI17DeadlyImportError, ptr nonnull @_ZN17DeadlyImportErrorD2Ev) #16
  unreachable

lpad.i47:                                         ; preds = %if.then.i45
  %10 = landingpad { ptr, i32 }
          cleanup
  br label %common.resume

_Z4ReadIjET_PN6Assimp8IOStreamE.exit49:           ; preds = %_Z4ReadIjET_PN6Assimp8IOStreamE.exit39
  %11 = load i32, ptr %t.i40, align 4
  call void @llvm.lifetime.end.p0(i64 4, ptr nonnull %t.i40)
  %mHeight = getelementptr inbounds i8, ptr %tex, i64 4
  store i32 %11, ptr %mHeight, align 4
  %achFormatHint = getelementptr inbounds i8, ptr %tex, i64 8
  %vtable = load ptr, ptr %stream, align 8
  %vfn = getelementptr inbounds i8, ptr %vtable, i64 16
  %12 = load ptr, ptr %vfn, align 8
  %call5 = call noundef i64 %12(ptr noundef nonnull align 8 dereferenceable(8) %stream, ptr noundef nonnull %achFormatHint, i64 noundef 1, i64 noundef 8)
  %shortened = getelementptr inbounds i8, ptr %this, i64 72
  %13 = load i8, ptr %shortened, align 8
  %14 = and i8 %13, 1
  %tobool.not = icmp eq i8 %14, 0
  br i1 %tobool.not, label %if.then6, label %if.end33

if.then6:                                         ; preds = %_Z4ReadIjET_PN6Assimp8IOStreamE.exit49
  %15 = load i32, ptr %mHeight, align 4
  %tobool8.not = icmp eq i32 %15, 0
  %16 = load i32, ptr %tex, align 8
  br i1 %tobool8.not, label %if.then9, label %if.else

if.then9:                                         ; preds = %if.then6
  %conv = zext i32 %16 to i64
  %17 = shl nuw nsw i64 %conv, 2
  %call11 = call noalias noundef nonnull ptr @_Znam(i64 noundef %17) #17
  %pcData = getelementptr inbounds i8, ptr %tex, i64 24
  store ptr %call11, ptr %pcData, align 8
  %vtable15 = load ptr, ptr %stream, align 8
  %vfn16 = getelementptr inbounds i8, ptr %vtable15, i64 16
  %18 = load ptr, ptr %vfn16, align 8
  %call17 = call noundef i64 %18(ptr noundef nonnull align 8 dereferenceable(8) %stream, ptr noundef nonnull %call11, i64 noundef 1, i64 noundef %conv)
  br label %if.end33

if.else:                                          ; preds = %if.then6
  %mul = mul i32 %16, %15
  %conv20 = zext i32 %mul to i64
  %19 = shl nuw nsw i64 %conv20, 2
  %call21 = call noalias noundef nonnull ptr @_Znam(i64 noundef %19) #17
  %pcData22 = getelementptr inbounds i8, ptr %tex, i64 24
  store ptr %call21, ptr %pcData22, align 8
  %mul27 = shl i32 %mul, 2
  %conv28 = zext i32 %mul27 to i64
  %vtable29 = load ptr, ptr %stream, align 8
  %vfn30 = getelementptr inbounds i8, ptr %vtable29, i64 16
  %20 = load ptr, ptr %vfn30, align 8
  %call31 = call noundef i64 %20(ptr noundef nonnull align 8 dereferenceable(8) %stream, ptr noundef nonnull %call21, i64 noundef 1, i64 noundef %conv28)
  br label %if.end33

if.end33:                                         ; preds = %if.then9, %if.else, %_Z4ReadIjET_PN6Assimp8IOStreamE.exit49
  ret void
}